target datalayout = "e-m:e-p270:32:32-p271:32:32-p272:64:64-i64:64-i128:128-f80:128-n8:16:32:64-S128"
target triple = "x86_64-pc-linux-gnu"

%struct.interface_stats_t = type { ptr, ptr, ptr, ptr, ptr, i64, i64, i64, i64, i64, i64, i64, i64 }

; Function Attrs: nounwind uwtable
define internal void @_destroy_interface_stats_t(ptr noundef %0) #0 {
  %2 = alloca ptr, align 8
  %3 = alloca ptr, align 8
  store ptr %0, ptr %2, align 8
  call void @llvm.lifetime.start.p0(i64 8, ptr %3) #6
  %4 = load ptr, ptr %2, align 8
  store ptr %4, ptr %3, align 8
  %5 = load ptr, ptr %3, align 8
  %6 = getelementptr inbounds nuw %struct.interface_stats_t, ptr %5, i32 0, i32 0
  call void @slurm_xfree(ptr noundef %6)
  %7 = load ptr, ptr %3, align 8
  %8 = getelementptr inbounds nuw %struct.interface_stats_t, ptr %7, i32 0, i32 1
  call void @slurm_xfree(ptr noundef %8)
  %9 = load ptr, ptr %3, align 8
  %10 = getelementptr inbounds nuw %struct.interface_stats_t, ptr %9, i32 0, i32 2
  call void @slurm_xfree(ptr noundef %10)
  %11 = load ptr, ptr %3, align 8
  %12 = getelementptr inbounds nuw %struct.interface_stats_t, ptr %11, i32 0, i32 3
  call void @slurm_xfree(ptr noundef %12)
  %13 = load ptr, ptr %3, align 8
  %14 = getelementptr inbounds nuw %struct.interface_stats_t, ptr %13, i32 0, i32 4
  call void @slurm_xfree(ptr noundef %14)
  call void @slurm_xfree(ptr noundef %3)
  call void @llvm.lifetime.end.p0(i64 8, ptr %3) #6
  ret void
}